; Function Attrs: nofree norecurse nosync nounwind memory(read, argmem: readwrite, inaccessiblemem: none) uwtable
define hidden void @PMurHash128x64(ptr noundef %0, i32 noundef %1, i32 noundef %2, ptr nocapture noundef writeonly %3) local_unnamed_addr #1 {
  %5 = alloca [2 x i64], align 16
  %6 = alloca [2 x i64], align 16
  call void @llvm.memset.p0.i64(ptr noundef nonnull align 16 dereferenceable(16) %5, i8 0, i64 16, i1 false)
  %7 = zext i32 %2 to i64
  store i64 %7, ptr %6, align 16
  %8 = getelementptr inbounds i8, ptr %6, i64 8
  store i64 %7, ptr %8, align 8
  call void @PMurHash128x64_Process(ptr noundef nonnull %6, ptr noundef nonnull %5, ptr noundef %0, i32 noundef %1)
  %9 = load i64, ptr %6, align 16
  %10 = load i64, ptr %8, align 8
  %11 = getelementptr inbounds i8, ptr %5, i64 8
  %12 = load i64, ptr %11, align 8
  %13 = trunc i64 %12 to i32
  %14 = and i32 %13, 15
  %.not.i = icmp eq i32 %14, 0
  br i1 %.not.i, label %PMurHash128x64_Result.exit, label %15

15:                                               ; preds = %4
  %16 = load i64, ptr %5, align 16
  %17 = icmp ugt i32 %14, 8
  %18 = shl nuw nsw i32 %14, 3
  br i1 %17, label %19, label %29

19:                                               ; preds = %15
  %20 = sub nuw nsw i32 128, %18
  %21 = zext nneg i32 %20 to i64
  %22 = lshr i64 %12, %21
  %23 = mul i64 %22, 5545529020109919103
  %24 = mul i64 %22, 5659660229084708864
  %25 = lshr i64 %23, 31
  %26 = or disjoint i64 %25, %24
  %27 = mul i64 %26, -8663945395140668459
  %28 = xor i64 %27, %10
  br label %33

29:                                               ; preds = %15
  %30 = sub nuw nsw i32 64, %18
  %31 = zext nneg i32 %30 to i64
  %32 = lshr i64 %16, %31
  br label %33

33:                                               ; preds = %29, %19
  %.059.i = phi i64 [ %28, %19 ], [ %10, %29 ]
  %.058.i = phi i64 [ %16, %19 ], [ %32, %29 ]
  %34 = mul i64 %.058.i, -8663945395140668459
  %35 = mul i64 %.058.i, -8601547726154366976
  %36 = lshr i64 %34, 33
  %37 = or disjoint i64 %36, %35
  %38 = mul i64 %37, 5545529020109919103
  %39 = xor i64 %38, %9
  br label %PMurHash128x64_Result.exit

PMurHash128x64_Result.exit:                       ; preds = %4, %33
  %.1.i = phi i64 [ %.059.i, %33 ], [ %10, %4 ]
  %.0.i = phi i64 [ %39, %33 ], [ %9, %4 ]
  %40 = zext i32 %1 to i64
  %41 = xor i64 %.0.i, %40
  %42 = xor i64 %.1.i, %40
  %43 = add i64 %41, %42
  %44 = add i64 %43, %42
  %45 = lshr i64 %43, 33
  %46 = xor i64 %45, %43
  %47 = mul i64 %46, -49064778989728563
  %48 = lshr i64 %47, 33
  %49 = xor i64 %48, %47
  %50 = mul i64 %49, -4265267296055464877
  %51 = lshr i64 %50, 33
  %52 = xor i64 %51, %50
  %53 = lshr i64 %44, 33
  %54 = xor i64 %53, %44
  %55 = mul i64 %54, -49064778989728563
  %56 = lshr i64 %55, 33
  %57 = xor i64 %56, %55
  %58 = mul i64 %57, -4265267296055464877
  %59 = lshr i64 %58, 33
  %60 = xor i64 %59, %58
  %61 = add i64 %60, %52
  %62 = add i64 %61, %60
  store i64 %61, ptr %3, align 8
  %63 = getelementptr inbounds i8, ptr %3, i64 8
  store i64 %62, ptr %63, align 8
  ret void
}